target datalayout = "e-m:e-p270:32:32-p271:32:32-p272:64:64-i64:64-i128:128-f80:128-n8:16:32:64-S128"
target triple = "x86_64-pc-linux-gnu"

; Function Attrs: nounwind sspstrong uwtable
define dso_local i32 @onigenc_unicode_ctype_code_range(i32 noundef %0, ptr noundef %1) #0 {
  %3 = alloca i32, align 4
  %4 = alloca i32, align 4
  %5 = alloca ptr, align 8
  store i32 %0, ptr %4, align 4, !tbaa !7
  store ptr %1, ptr %5, align 8, !tbaa !18
  %6 = load i32, ptr %4, align 4, !tbaa !7
  %7 = icmp sge i32 %6, 645
  br i1 %7, label %8, label %9

8:                                                ; preds = %2
  store i32 -6, ptr %3, align 4
  br label %15

9:                                                ; preds = %2
  %10 = load i32, ptr %4, align 4, !tbaa !7
  %11 = sext i32 %10 to i64
  %12 = getelementptr [645 x ptr], ptr @CodeRanges, i64 0, i64 %11
  %13 = load ptr, ptr %12, align 8, !tbaa !16
  %14 = load ptr, ptr %5, align 8, !tbaa !18
  store ptr %13, ptr %14, align 8, !tbaa !16
  store i32 0, ptr %3, align 4
  br label %15

15:                                               ; preds = %9, %8
  %16 = load i32, ptr %3, align 4
  ret i32 %16
}

; Function Attrs: nounwind sspstrong uwtable
define dso_local i32 @onigenc_utf16_32_get_ctype_code_range(i32 noundef %0, ptr noundef %1, ptr noundef %2, ptr noundef %3) #0 {
  %5 = alloca i32, align 4
  %6 = alloca ptr, align 8
  %7 = alloca ptr, align 8
  %8 = alloca ptr, align 8
  store i32 %0, ptr %5, align 4, !tbaa !7
  store ptr %1, ptr %6, align 8, !tbaa !16
  store ptr %2, ptr %7, align 8, !tbaa !18
  store ptr %3, ptr %8, align 8, !tbaa !11
  %9 = load ptr, ptr %6, align 8, !tbaa !16
  store i32 0, ptr %9, align 4, !tbaa !7
  %10 = load i32, ptr %5, align 4, !tbaa !7
  %11 = load ptr, ptr %7, align 8, !tbaa !18
  %12 = call i32 @onigenc_unicode_ctype_code_range(i32 noundef %10, ptr noundef %11)
  ret i32 %12
}