; Function Attrs: mustprogress nofree norecurse nosync nounwind sspstrong willreturn memory(argmem: write) uwtable
define dso_local range(i32 -6, 1) i32 @onigenc_utf16_32_get_ctype_code_range(i32 noundef %0, ptr noundef writeonly captures(none) initializes((0, 4)) %1, ptr noundef writeonly captures(none) %2, ptr noundef readnone captures(none) %3) local_unnamed_addr #2 {
  store i32 0, ptr %1, align 4, !tbaa !14
  %5 = icmp sgt i32 %0, 644
  br i1 %5, label %onigenc_unicode_ctype_code_range.exit, label %6

6:                                                ; preds = %4
  %7 = sext i32 %0 to i64
  %8 = getelementptr [645 x ptr], ptr @CodeRanges, i64 0, i64 %7
  %9 = load ptr, ptr %8, align 8, !tbaa !11
  store ptr %9, ptr %2, align 8, !tbaa !11
  br label %onigenc_unicode_ctype_code_range.exit

onigenc_unicode_ctype_code_range.exit:            ; preds = %4, %6
  %.0.i = phi i32 [ 0, %6 ], [ -6, %4 ]
  ret i32 %.0.i
}